target datalayout = "e-m:e-p270:32:32-p271:32:32-p272:64:64-i64:64-i128:128-f80:128-n8:16:32:64-S128"
target triple = "x86_64-pc-linux-gnu"

%struct.mbedtls_gcm_context = type { %struct.mbedtls_cipher_context_t, [16 x i64], [16 x i64], i64, i64, [16 x i8], [16 x i8], [16 x i8], i32 }
%struct.mbedtls_cipher_context_t = type { ptr, i32, i32, [16 x i8], i64, [16 x i8], i64, ptr }

; Function Attrs: mustprogress uwtable
define hidden i32 @mbedtls_gcm_update_ad(ptr noundef %0, ptr noundef %1, i64 noundef %2) #2 {
  %4 = alloca i32, align 4
  %5 = alloca ptr, align 8
  %6 = alloca ptr, align 8
  %7 = alloca i64, align 8
  %8 = alloca ptr, align 8
  %9 = alloca i64, align 8
  %10 = alloca i64, align 8
  %11 = alloca i64, align 8
  %12 = alloca i32, align 4
  store ptr %0, ptr %5, align 8, !tbaa !3
  store ptr %1, ptr %6, align 8, !tbaa !10
  store i64 %2, ptr %7, align 8, !tbaa !21
  call void @llvm.lifetime.start.p0(i64 8, ptr %8) #6
  call void @llvm.lifetime.start.p0(i64 8, ptr %9) #6
  call void @llvm.lifetime.start.p0(i64 8, ptr %10) #6
  call void @llvm.lifetime.start.p0(i64 8, ptr %11) #6
  br label %13

13:                                               ; preds = %3
  br label %14

14:                                               ; preds = %13
  br label %15

15:                                               ; preds = %14
  %16 = load i64, ptr %7, align 8, !tbaa !21
  %17 = lshr i64 %16, 61
  %18 = icmp ne i64 %17, 0
  br i1 %18, label %19, label %20

19:                                               ; preds = %15
  store i32 -20, ptr %4, align 4
  store i32 1, ptr %12, align 4
  br label %154

20:                                               ; preds = %15
  %21 = load ptr, ptr %5, align 8, !tbaa !3
  %22 = getelementptr inbounds nuw %struct.mbedtls_gcm_context, ptr %21, i32 0, i32 4
  %23 = load i64, ptr %22, align 8, !tbaa !35
  %24 = urem i64 %23, 16
  store i64 %24, ptr %11, align 8, !tbaa !21
  %25 = load ptr, ptr %6, align 8, !tbaa !10
  store ptr %25, ptr %8, align 8, !tbaa !10
  %26 = load i64, ptr %11, align 8, !tbaa !21
  %27 = icmp ne i64 %26, 0
  br i1 %27, label %28, label %85

28:                                               ; preds = %20
  %29 = load i64, ptr %11, align 8, !tbaa !21
  %30 = sub i64 16, %29
  store i64 %30, ptr %9, align 8, !tbaa !21
  %31 = load i64, ptr %9, align 8, !tbaa !21
  %32 = load i64, ptr %7, align 8, !tbaa !21
  %33 = icmp ugt i64 %31, %32
  br i1 %33, label %34, label %36

34:                                               ; preds = %28
  %35 = load i64, ptr %7, align 8, !tbaa !21
  store i64 %35, ptr %9, align 8, !tbaa !21
  br label %36

36:                                               ; preds = %34, %28
  store i64 0, ptr %10, align 8, !tbaa !21
  br label %37

37:                                               ; preds = %57, %36
  %38 = load i64, ptr %10, align 8, !tbaa !21
  %39 = load i64, ptr %9, align 8, !tbaa !21
  %40 = icmp ult i64 %38, %39
  br i1 %40, label %41, label %60

41:                                               ; preds = %37
  %42 = load ptr, ptr %8, align 8, !tbaa !10
  %43 = load i64, ptr %10, align 8, !tbaa !21
  %44 = getelementptr inbounds nuw i8, ptr %42, i64 %43
  %45 = load i8, ptr %44, align 1, !tbaa !23
  %46 = zext i8 %45 to i32
  %47 = load ptr, ptr %5, align 8, !tbaa !3
  %48 = getelementptr inbounds nuw %struct.mbedtls_gcm_context, ptr %47, i32 0, i32 7
  %49 = load i64, ptr %10, align 8, !tbaa !21
  %50 = load i64, ptr %11, align 8, !tbaa !21
  %51 = add i64 %49, %50
  %52 = getelementptr inbounds nuw [16 x i8], ptr %48, i64 0, i64 %51
  %53 = load i8, ptr %52, align 1, !tbaa !23
  %54 = zext i8 %53 to i32
  %55 = xor i32 %54, %46
  %56 = trunc i32 %55 to i8
  store i8 %56, ptr %52, align 1, !tbaa !23
  br label %57

57:                                               ; preds = %41
  %58 = load i64, ptr %10, align 8, !tbaa !21
  %59 = add i64 %58, 1
  store i64 %59, ptr %10, align 8, !tbaa !21
  br label %37, !llvm.loop !40

60:                                               ; preds = %37
  %61 = load i64, ptr %11, align 8, !tbaa !21
  %62 = load i64, ptr %9, align 8, !tbaa !21
  %63 = add i64 %61, %62
  %64 = icmp eq i64 %63, 16
  br i1 %64, label %65, label %73

65:                                               ; preds = %60
  %66 = load ptr, ptr %5, align 8, !tbaa !3
  %67 = load ptr, ptr %5, align 8, !tbaa !3
  %68 = getelementptr inbounds nuw %struct.mbedtls_gcm_context, ptr %67, i32 0, i32 7
  %69 = getelementptr inbounds [16 x i8], ptr %68, i64 0, i64 0
  %70 = load ptr, ptr %5, align 8, !tbaa !3
  %71 = getelementptr inbounds nuw %struct.mbedtls_gcm_context, ptr %70, i32 0, i32 7
  %72 = getelementptr inbounds [16 x i8], ptr %71, i64 0, i64 0
  call void @_ZL8gcm_multP19mbedtls_gcm_contextPKhPh(ptr noundef %66, ptr noundef %69, ptr noundef %72)
  br label %73

73:                                               ; preds = %65, %60
  %74 = load i64, ptr %9, align 8, !tbaa !21
  %75 = load ptr, ptr %5, align 8, !tbaa !3
  %76 = getelementptr inbounds nuw %struct.mbedtls_gcm_context, ptr %75, i32 0, i32 4
  %77 = load i64, ptr %76, align 8, !tbaa !35
  %78 = add i64 %77, %74
  store i64 %78, ptr %76, align 8, !tbaa !35
  %79 = load i64, ptr %9, align 8, !tbaa !21
  %80 = load i64, ptr %7, align 8, !tbaa !21
  %81 = sub i64 %80, %79
  store i64 %81, ptr %7, align 8, !tbaa !21
  %82 = load i64, ptr %9, align 8, !tbaa !21
  %83 = load ptr, ptr %8, align 8, !tbaa !10
  %84 = getelementptr inbounds nuw i8, ptr %83, i64 %82
  store ptr %84, ptr %8, align 8, !tbaa !10
  br label %85

85:                                               ; preds = %73, %20
  %86 = load i64, ptr %7, align 8, !tbaa !21
  %87 = load ptr, ptr %5, align 8, !tbaa !3
  %88 = getelementptr inbounds nuw %struct.mbedtls_gcm_context, ptr %87, i32 0, i32 4
  %89 = load i64, ptr %88, align 8, !tbaa !35
  %90 = add i64 %89, %86
  store i64 %90, ptr %88, align 8, !tbaa !35
  br label %91

91:                                               ; preds = %115, %85
  %92 = load i64, ptr %7, align 8, !tbaa !21
  %93 = icmp uge i64 %92, 16
  br i1 %93, label %94, label %127

94:                                               ; preds = %91
  store i64 0, ptr %10, align 8, !tbaa !21
  br label %95

95:                                               ; preds = %112, %94
  %96 = load i64, ptr %10, align 8, !tbaa !21
  %97 = icmp ult i64 %96, 16
  br i1 %97, label %98, label %115

98:                                               ; preds = %95
  %99 = load ptr, ptr %8, align 8, !tbaa !10
  %100 = load i64, ptr %10, align 8, !tbaa !21
  %101 = getelementptr inbounds nuw i8, ptr %99, i64 %100
  %102 = load i8, ptr %101, align 1, !tbaa !23
  %103 = zext i8 %102 to i32
  %104 = load ptr, ptr %5, align 8, !tbaa !3
  %105 = getelementptr inbounds nuw %struct.mbedtls_gcm_context, ptr %104, i32 0, i32 7
  %106 = load i64, ptr %10, align 8, !tbaa !21
  %107 = getelementptr inbounds nuw [16 x i8], ptr %105, i64 0, i64 %106
  %108 = load i8, ptr %107, align 1, !tbaa !23
  %109 = zext i8 %108 to i32
  %110 = xor i32 %109, %103
  %111 = trunc i32 %110 to i8
  store i8 %111, ptr %107, align 1, !tbaa !23
  br label %112

112:                                              ; preds = %98
  %113 = load i64, ptr %10, align 8, !tbaa !21
  %114 = add i64 %113, 1
  store i64 %114, ptr %10, align 8, !tbaa !21
  br label %95, !llvm.loop !41

115:                                              ; preds = %95
  %116 = load ptr, ptr %5, align 8, !tbaa !3
  %117 = load ptr, ptr %5, align 8, !tbaa !3
  %118 = getelementptr inbounds nuw %struct.mbedtls_gcm_context, ptr %117, i32 0, i32 7
  %119 = getelementptr inbounds [16 x i8], ptr %118, i64 0, i64 0
  %120 = load ptr, ptr %5, align 8, !tbaa !3
  %121 = getelementptr inbounds nuw %struct.mbedtls_gcm_context, ptr %120, i32 0, i32 7
  %122 = getelementptr inbounds [16 x i8], ptr %121, i64 0, i64 0
  call void @_ZL8gcm_multP19mbedtls_gcm_contextPKhPh(ptr noundef %116, ptr noundef %119, ptr noundef %122)
  %123 = load i64, ptr %7, align 8, !tbaa !21
  %124 = sub i64 %123, 16
  store i64 %124, ptr %7, align 8, !tbaa !21
  %125 = load ptr, ptr %8, align 8, !tbaa !10
  %126 = getelementptr inbounds i8, ptr %125, i64 16
  store ptr %126, ptr %8, align 8, !tbaa !10
  br label %91, !llvm.loop !42

127:                                              ; preds = %91
  %128 = load i64, ptr %7, align 8, !tbaa !21
  %129 = icmp ugt i64 %128, 0
  br i1 %129, label %130, label %153

130:                                              ; preds = %127
  store i64 0, ptr %10, align 8, !tbaa !21
  br label %131

131:                                              ; preds = %149, %130
  %132 = load i64, ptr %10, align 8, !tbaa !21
  %133 = load i64, ptr %7, align 8, !tbaa !21
  %134 = icmp ult i64 %132, %133
  br i1 %134, label %135, label %152

135:                                              ; preds = %131
  %136 = load ptr, ptr %8, align 8, !tbaa !10
  %137 = load i64, ptr %10, align 8, !tbaa !21
  %138 = getelementptr inbounds nuw i8, ptr %136, i64 %137
  %139 = load i8, ptr %138, align 1, !tbaa !23
  %140 = zext i8 %139 to i32
  %141 = load ptr, ptr %5, align 8, !tbaa !3
  %142 = getelementptr inbounds nuw %struct.mbedtls_gcm_context, ptr %141, i32 0, i32 7
  %143 = load i64, ptr %10, align 8, !tbaa !21
  %144 = getelementptr inbounds nuw [16 x i8], ptr %142, i64 0, i64 %143
  %145 = load i8, ptr %144, align 1, !tbaa !23
  %146 = zext i8 %145 to i32
  %147 = xor i32 %146, %140
  %148 = trunc i32 %147 to i8
  store i8 %148, ptr %144, align 1, !tbaa !23
  br label %149

149:                                              ; preds = %135
  %150 = load i64, ptr %10, align 8, !tbaa !21
  %151 = add i64 %150, 1
  store i64 %151, ptr %10, align 8, !tbaa !21
  br label %131, !llvm.loop !43

152:                                              ; preds = %131
  br label %153

153:                                              ; preds = %152, %127
  store i32 0, ptr %4, align 4
  store i32 1, ptr %12, align 4
  br label %154

154:                                              ; preds = %153, %19
  call void @llvm.lifetime.end.p0(i64 8, ptr %11) #6
  call void @llvm.lifetime.end.p0(i64 8, ptr %10) #6
  call void @llvm.lifetime.end.p0(i64 8, ptr %9) #6
  call void @llvm.lifetime.end.p0(i64 8, ptr %8) #6
  %155 = load i32, ptr %4, align 4
  ret i32 %155
}