; Function Attrs: mustprogress nofree norecurse nosync nounwind memory(argmem: readwrite) uwtable
define hidden range(i32 -20, 1) i32 @mbedtls_gcm_update_ad(ptr noundef captures(none) %0, ptr noundef readonly captures(none) %1, i64 noundef %2) local_unnamed_addr #6 {
  %.not = icmp ult i64 %2, 2305843009213693952
  br i1 %.not, label %4, label %.loopexit

4:                                                ; preds = %3
  %5 = getelementptr inbounds nuw i8, ptr %0, i64 336
  %6 = load i64, ptr %5, align 8, !tbaa !29
  %7 = and i64 %6, 15
  %.not58 = icmp eq i64 %7, 0
  br i1 %.not58, label %28, label %8

8:                                                ; preds = %4
  %9 = sub nuw nsw i64 16, %7
  %spec.select = tail call i64 @llvm.umin.i64(i64 %9, i64 %2)
  %.not68 = icmp eq i64 %2, 0
  br i1 %.not68, label %._crit_edge, label %.lr.ph

.lr.ph:                                           ; preds = %8
  %10 = getelementptr inbounds nuw i8, ptr %0, i64 376
  br label %11

11:                                               ; preds = %.lr.ph, %11
  %.04961 = phi i64 [ 0, %.lr.ph ], [ %18, %11 ]
  %12 = getelementptr inbounds nuw i8, ptr %1, i64 %.04961
  %13 = load i8, ptr %12, align 1, !tbaa !15
  %14 = add nuw nsw i64 %.04961, %7
  %15 = getelementptr inbounds nuw [16 x i8], ptr %10, i64 0, i64 %14
  %16 = load i8, ptr %15, align 1, !tbaa !15
  %17 = xor i8 %16, %13
  store i8 %17, ptr %15, align 1, !tbaa !15
  %18 = add nuw nsw i64 %.04961, 1
  %exitcond.not = icmp eq i64 %18, %spec.select
  br i1 %exitcond.not, label %._crit_edge, label %11, !llvm.loop !30

._crit_edge:                                      ; preds = %11, %8
  %19 = add nuw nsw i64 %spec.select, %7
  %20 = icmp eq i64 %19, 16
  br i1 %20, label %21, label %23

21:                                               ; preds = %._crit_edge
  %22 = getelementptr inbounds nuw i8, ptr %0, i64 376
  tail call fastcc void @_ZL8gcm_multP19mbedtls_gcm_contextPKhPh(ptr noundef nonnull %0, ptr noundef nonnull %22, ptr noundef nonnull %22)
  %.pre = load i64, ptr %5, align 8, !tbaa !29
  br label %23

23:                                               ; preds = %21, %._crit_edge
  %24 = phi i64 [ %.pre, %21 ], [ %6, %._crit_edge ]
  %25 = add i64 %24, %spec.select
  %26 = sub nsw i64 %2, %spec.select
  %27 = getelementptr inbounds nuw i8, ptr %1, i64 %spec.select
  br label %28

28:                                               ; preds = %23, %4
  %29 = phi i64 [ %25, %23 ], [ %6, %4 ]
  %.053 = phi i64 [ %26, %23 ], [ %2, %4 ]
  %.051 = phi ptr [ %27, %23 ], [ %1, %4 ]
  %30 = add i64 %29, %.053
  store i64 %30, ptr %5, align 8, !tbaa !29
  %31 = icmp ugt i64 %.053, 15
  br i1 %31, label %.preheader60.lr.ph, label %._crit_edge65

.preheader60.lr.ph:                               ; preds = %28
  %32 = getelementptr inbounds nuw i8, ptr %0, i64 376
  br label %.preheader60

.preheader60:                                     ; preds = %.preheader60.lr.ph, %40
  %.15264 = phi ptr [ %.051, %.preheader60.lr.ph ], [ %42, %40 ]
  %.15463 = phi i64 [ %.053, %.preheader60.lr.ph ], [ %41, %40 ]
  br label %33

33:                                               ; preds = %.preheader60, %33
  %.162 = phi i64 [ 0, %.preheader60 ], [ %39, %33 ]
  %34 = getelementptr inbounds nuw i8, ptr %.15264, i64 %.162
  %35 = load i8, ptr %34, align 1, !tbaa !15
  %36 = getelementptr inbounds nuw [16 x i8], ptr %32, i64 0, i64 %.162
  %37 = load i8, ptr %36, align 1, !tbaa !15
  %38 = xor i8 %37, %35
  store i8 %38, ptr %36, align 1, !tbaa !15
  %39 = add nuw nsw i64 %.162, 1
  %exitcond70.not = icmp eq i64 %39, 16
  br i1 %exitcond70.not, label %40, label %33, !llvm.loop !31

40:                                               ; preds = %33
  tail call fastcc void @_ZL8gcm_multP19mbedtls_gcm_contextPKhPh(ptr noundef nonnull %0, ptr noundef nonnull %32, ptr noundef nonnull %32)
  %41 = add i64 %.15463, -16
  %42 = getelementptr inbounds nuw i8, ptr %.15264, i64 16
  %43 = icmp ugt i64 %41, 15
  br i1 %43, label %.preheader60, label %._crit_edge65, !llvm.loop !32

._crit_edge65:                                    ; preds = %40, %28
  %.154.lcssa = phi i64 [ %.053, %28 ], [ %41, %40 ]
  %.152.lcssa = phi ptr [ %.051, %28 ], [ %42, %40 ]
  %.not59 = icmp eq i64 %.154.lcssa, 0
  br i1 %.not59, label %.loopexit, label %.preheader

.preheader:                                       ; preds = %._crit_edge65
  %44 = getelementptr inbounds nuw i8, ptr %0, i64 376
  br label %45

45:                                               ; preds = %.preheader, %45
  %.267 = phi i64 [ 0, %.preheader ], [ %51, %45 ]
  %46 = getelementptr inbounds nuw i8, ptr %.152.lcssa, i64 %.267
  %47 = load i8, ptr %46, align 1, !tbaa !15
  %48 = getelementptr inbounds nuw [16 x i8], ptr %44, i64 0, i64 %.267
  %49 = load i8, ptr %48, align 1, !tbaa !15
  %50 = xor i8 %49, %47
  store i8 %50, ptr %48, align 1, !tbaa !15
  %51 = add nuw nsw i64 %.267, 1
  %exitcond71.not = icmp eq i64 %51, %.154.lcssa
  br i1 %exitcond71.not, label %.loopexit, label %45, !llvm.loop !33

.loopexit:                                        ; preds = %45, %._crit_edge65, %3
  %.0 = phi i32 [ -20, %3 ], [ 0, %._crit_edge65 ], [ 0, %45 ]
  ret i32 %.0
}